; Function Attrs: null_pointer_is_valid sspstrong uwtable
define internal i32 @dissect_nv(ptr noundef %0, ptr noundef readonly captures(none) %1, ptr noundef %2, ptr readnone captures(none) %3) #0 {
  %5 = alloca [200 x i8], align 16
  call void @llvm.lifetime.start.p0(i64 200, ptr nonnull %5) #4
  %6 = getelementptr inbounds nuw i8, ptr %1, i64 8
  %7 = load ptr, ptr %6, align 8
  tail call void @col_set_str(ptr noundef %7, i32 noundef 35, ptr noundef nonnull @.str.23)
  %8 = load ptr, ptr %6, align 8
  tail call void @col_clear(ptr noundef %8, i32 noundef 25)
  %9 = tail call zeroext i8 @tvb_get_uint8(ptr noundef %0, i32 noundef 0)
  %10 = zext i8 %9 to i32
  %11 = tail call zeroext i8 @tvb_get_uint8(ptr noundef %0, i32 noundef 1)
  %12 = zext i8 %11 to i32
  %13 = tail call zeroext i8 @tvb_get_uint8(ptr noundef %0, i32 noundef 2)
  %14 = zext i8 %13 to i32
  %15 = tail call zeroext i8 @tvb_get_uint8(ptr noundef %0, i32 noundef 3)
  %16 = zext i8 %15 to i32
  %17 = tail call zeroext i8 @tvb_get_uint8(ptr noundef %0, i32 noundef 4)
  %18 = zext i8 %17 to i32
  %19 = tail call zeroext i8 @tvb_get_uint8(ptr noundef %0, i32 noundef 5)
  %20 = zext i8 %19 to i32
  %21 = tail call zeroext i16 @tvb_get_letohs(ptr noundef %0, i32 noundef 6)
  %22 = zext i16 %21 to i32
  %23 = call i32 (ptr, i64, i32, i64, ptr, ...) @__snprintf_chk(ptr noundef nonnull %5, i64 noundef 199, i32 noundef 2, i64 noundef 200, ptr noundef nonnull @.str.28, i32 noundef %10, i32 noundef %12, i32 noundef %14, i32 noundef %16, i32 noundef %18, i32 noundef %20, i32 noundef %22)
  %24 = load ptr, ptr %6, align 8
  call void @col_append_str(ptr noundef %24, i32 noundef 25, ptr noundef nonnull %5)
  %.not = icmp eq ptr %2, null
  br i1 %.not, label %.loopexit, label %25

25:                                               ; preds = %4
  %26 = load i32, ptr @proto_nv, align 4
  %27 = call ptr @proto_tree_add_item(ptr noundef nonnull %2, i32 noundef %26, ptr noundef %0, i32 noundef 0, i32 noundef -1, i32 noundef 0)
  %28 = load i32, ptr @ett_nv, align 4
  %29 = call ptr @proto_item_add_subtree(ptr noundef %27, i32 noundef %28)
  call void (ptr, ptr, ...) @proto_item_append_text(ptr noundef %27, ptr noundef nonnull @.str.26, ptr noundef nonnull %5)
  %30 = load i32, ptr @hf_nv_header, align 4
  %31 = call ptr @proto_tree_add_item(ptr noundef %29, i32 noundef %30, ptr noundef %0, i32 noundef 0, i32 noundef 12, i32 noundef 0)
  %32 = load i32, ptr @ett_nv_header, align 4
  %33 = call ptr @proto_item_add_subtree(ptr noundef %31, i32 noundef %32)
  %34 = load i32, ptr @hf_nv_publisher, align 4
  %35 = call ptr @proto_tree_add_item(ptr noundef %33, i32 noundef %34, ptr noundef %0, i32 noundef 0, i32 noundef 6, i32 noundef 0)
  %36 = call zeroext i8 @tvb_get_uint8(ptr noundef %0, i32 noundef 0)
  %37 = zext i8 %36 to i32
  %38 = call zeroext i8 @tvb_get_uint8(ptr noundef %0, i32 noundef 1)
  %39 = zext i8 %38 to i32
  %40 = call zeroext i8 @tvb_get_uint8(ptr noundef %0, i32 noundef 2)
  %41 = zext i8 %40 to i32
  %42 = call zeroext i8 @tvb_get_uint8(ptr noundef %0, i32 noundef 3)
  %43 = zext i8 %42 to i32
  %44 = call zeroext i8 @tvb_get_uint8(ptr noundef %0, i32 noundef 4)
  %45 = zext i8 %44 to i32
  %46 = call zeroext i8 @tvb_get_uint8(ptr noundef %0, i32 noundef 5)
  %47 = zext i8 %46 to i32
  %48 = call i32 (ptr, i64, i32, i64, ptr, ...) @__snprintf_chk(ptr noundef nonnull %5, i64 noundef 199, i32 noundef 2, i64 noundef 200, ptr noundef nonnull @.str.29, i32 noundef %37, i32 noundef %39, i32 noundef %41, i32 noundef %43, i32 noundef %45, i32 noundef %47)
  call void (ptr, ptr, ...) @proto_item_set_text(ptr noundef %35, ptr noundef nonnull @.str.27, ptr noundef nonnull %5)
  %49 = load i32, ptr @hf_nv_count, align 4
  %50 = call ptr @proto_tree_add_item(ptr noundef %33, i32 noundef %49, ptr noundef %0, i32 noundef 6, i32 noundef 2, i32 noundef -2147483648)
  %51 = call zeroext i16 @tvb_get_letohs(ptr noundef %0, i32 noundef 6)
  %52 = load i32, ptr @hf_nv_cycleindex, align 4
  %53 = call ptr @proto_tree_add_item(ptr noundef %33, i32 noundef %52, ptr noundef %0, i32 noundef 8, i32 noundef 2, i32 noundef -2147483648)
  %54 = zext i16 %51 to i32
  %.not76 = icmp eq i16 %51, 0
  br i1 %.not76, label %.loopexit, label %.lr.ph

.lr.ph:                                           ; preds = %25, %.lr.ph
  %.075 = phi i32 [ %85, %.lr.ph ], [ 12, %25 ]
  %.07274 = phi i32 [ %86, %.lr.ph ], [ 0, %25 ]
  %55 = add i32 %.075, 4
  %56 = call zeroext i16 @tvb_get_letohs(ptr noundef %0, i32 noundef %55)
  %57 = load i32, ptr @hf_nv_variable, align 4
  %58 = zext i16 %56 to i32
  %59 = add nuw nsw i32 %58, 8
  %60 = call ptr @proto_tree_add_item(ptr noundef %29, i32 noundef %57, ptr noundef %0, i32 noundef %.075, i32 noundef %59, i32 noundef 0)
  %61 = call zeroext i16 @tvb_get_letohs(ptr noundef %0, i32 noundef %.075)
  %62 = zext i16 %61 to i32
  %63 = call zeroext i16 @tvb_get_letohs(ptr noundef %0, i32 noundef %55)
  %64 = zext i16 %63 to i32
  %65 = call i32 (ptr, i64, i32, i64, ptr, ...) @__snprintf_chk(ptr noundef nonnull %5, i64 noundef 199, i32 noundef 2, i64 noundef 200, ptr noundef nonnull @.str.30, i32 noundef %62, i32 noundef %64)
  call void (ptr, ptr, ...) @proto_item_set_text(ptr noundef %60, ptr noundef nonnull @.str.27, ptr noundef nonnull %5)
  %66 = load i32, ptr @ett_nv_var, align 4
  %67 = call ptr @proto_item_add_subtree(ptr noundef %60, i32 noundef %66)
  %68 = load i32, ptr @hf_nv_varheader, align 4
  %69 = call ptr @proto_tree_add_item(ptr noundef %67, i32 noundef %68, ptr noundef %0, i32 noundef %.075, i32 noundef 8, i32 noundef 0)
  %70 = load i32, ptr @ett_nv_varheader, align 4
  %71 = call ptr @proto_item_add_subtree(ptr noundef %69, i32 noundef %70)
  %72 = load i32, ptr @hf_nv_id, align 4
  %73 = call ptr @proto_tree_add_item(ptr noundef %71, i32 noundef %72, ptr noundef %0, i32 noundef %.075, i32 noundef 2, i32 noundef -2147483648)
  %74 = add i32 %.075, 2
  %75 = load i32, ptr @hf_nv_hash, align 4
  %76 = call ptr @proto_tree_add_item(ptr noundef %71, i32 noundef %75, ptr noundef %0, i32 noundef %74, i32 noundef 2, i32 noundef -2147483648)
  %77 = load i32, ptr @hf_nv_length, align 4
  %78 = call ptr @proto_tree_add_item(ptr noundef %71, i32 noundef %77, ptr noundef %0, i32 noundef %55, i32 noundef 2, i32 noundef -2147483648)
  %79 = add i32 %.075, 6
  %80 = load i32, ptr @hf_nv_quality, align 4
  %81 = call ptr @proto_tree_add_item(ptr noundef %71, i32 noundef %80, ptr noundef %0, i32 noundef %79, i32 noundef 2, i32 noundef -2147483648)
  %82 = add i32 %.075, 8
  %83 = load i32, ptr @hf_nv_data, align 4
  %84 = call ptr @proto_tree_add_item(ptr noundef %67, i32 noundef %83, ptr noundef %0, i32 noundef %82, i32 noundef %58, i32 noundef 0)
  %85 = add i32 %82, %58
  %86 = add nuw nsw i32 %.07274, 1
  %exitcond.not = icmp eq i32 %86, %54
  br i1 %exitcond.not, label %.loopexit, label %.lr.ph, !llvm.loop !6

.loopexit:                                        ; preds = %.lr.ph, %25, %4
  %87 = call i32 @tvb_captured_length(ptr noundef %0)
  call void @llvm.lifetime.end.p0(i64 200, ptr nonnull %5) #4
  ret i32 %87
}